; Function Attrs: mustprogress uwtable
define void @_ZN6casadi16DeserializerBase15blind_unpack_sxEv(ptr dead_on_unwind noalias writable sret(%"class.casadi::Matrix") align 8 %0, ptr nocapture noundef nonnull readonly align 8 dereferenceable(16) %1) local_unnamed_addr #3 align 2 personality ptr @__gxx_personality_v0 {
  %3 = alloca %"class.casadi::Matrix", align 8
  %4 = alloca %"class.casadi::Function", align 8
  call void @_ZN6casadi8FunctionC1Ev(ptr noundef nonnull align 8 dereferenceable(8) %4)
  %5 = invoke noundef nonnull align 8 dereferenceable(41) ptr @_ZN6casadi16DeserializerBase12deserializerEv(ptr noundef nonnull align 8 dereferenceable(16) %1)
          to label %6 unwind label %22

6:                                                ; preds = %2
  invoke void @_ZN6casadi19DeserializingStream6unpackERNS_8FunctionE(ptr noundef nonnull align 8 dereferenceable(41) %5, ptr noundef nonnull align 8 dereferenceable(8) %4)
          to label %7 unwind label %22

7:                                                ; preds = %6
  invoke void @_ZN6casadi6MatrixINS_6SXElemEEC1Ev(ptr noundef nonnull align 8 dereferenceable(40) %0)
          to label %8 unwind label %22

8:                                                ; preds = %7
  %9 = invoke noundef nonnull align 8 dereferenceable(41) ptr @_ZN6casadi16DeserializerBase12deserializerEv(ptr noundef nonnull align 8 dereferenceable(16) %1)
          to label %10 unwind label %24

10:                                               ; preds = %8
  call void @llvm.lifetime.start.p0(i64 40, ptr nonnull %3)
  invoke void @_ZN6casadi6MatrixINS_6SXElemEE11deserializeERNS_19DeserializingStreamE(ptr dead_on_unwind nonnull writable sret(%"class.casadi::Matrix") align 8 %3, ptr noundef nonnull align 8 dereferenceable(41) %9)
          to label %.noexc unwind label %24

.noexc:                                           ; preds = %10
  %11 = invoke noundef nonnull align 8 dereferenceable(40) ptr @_ZN6casadi6MatrixINS_6SXElemEEaSERKS2_(ptr noundef nonnull align 8 dereferenceable(40) %0, ptr noundef nonnull align 8 dereferenceable(40) %3)
          to label %12 unwind label %20

12:                                               ; preds = %.noexc
  %13 = getelementptr inbounds i8, ptr %3, i64 16
  %14 = load ptr, ptr %13, align 8
  %15 = getelementptr inbounds i8, ptr %3, i64 24
  %16 = load ptr, ptr %15, align 8
  %.not4.i.i.i.i.i.i = icmp eq ptr %14, %16
  br i1 %.not4.i.i.i.i.i.i, label %_ZSt8_DestroyIPN6casadi6SXElemES1_EvT_S3_RSaIT0_E.exit.i.i.i, label %.lr.ph.i.i.i.i.i.i

.lr.ph.i.i.i.i.i.i:                               ; preds = %12, %.lr.ph.i.i.i.i.i.i
  %.05.i.i.i.i.i.i = phi ptr [ %17, %.lr.ph.i.i.i.i.i.i ], [ %14, %12 ]
  call void @_ZN6casadi6SXElemD1Ev(ptr noundef nonnull align 8 dereferenceable(8) %.05.i.i.i.i.i.i) #21
  %17 = getelementptr inbounds i8, ptr %.05.i.i.i.i.i.i, i64 8
  %.not.i.i.i.i.i.i = icmp eq ptr %17, %16
  br i1 %.not.i.i.i.i.i.i, label %_ZSt8_DestroyIPN6casadi6SXElemES1_EvT_S3_RSaIT0_E.exitthread-pre-split.i.i.i, label %.lr.ph.i.i.i.i.i.i, !llvm.loop !32

_ZSt8_DestroyIPN6casadi6SXElemES1_EvT_S3_RSaIT0_E.exitthread-pre-split.i.i.i: ; preds = %.lr.ph.i.i.i.i.i.i
  %.pr.i.i.i = load ptr, ptr %13, align 8
  br label %_ZSt8_DestroyIPN6casadi6SXElemES1_EvT_S3_RSaIT0_E.exit.i.i.i

_ZSt8_DestroyIPN6casadi6SXElemES1_EvT_S3_RSaIT0_E.exit.i.i.i: ; preds = %_ZSt8_DestroyIPN6casadi6SXElemES1_EvT_S3_RSaIT0_E.exitthread-pre-split.i.i.i, %12
  %18 = phi ptr [ %.pr.i.i.i, %_ZSt8_DestroyIPN6casadi6SXElemES1_EvT_S3_RSaIT0_E.exitthread-pre-split.i.i.i ], [ %14, %12 ]
  %.not.i.i.i.i.i = icmp eq ptr %18, null
  br i1 %.not.i.i.i.i.i, label %26, label %19

19:                                               ; preds = %_ZSt8_DestroyIPN6casadi6SXElemES1_EvT_S3_RSaIT0_E.exit.i.i.i
  call void @_ZdlPv(ptr noundef nonnull %18) #20
  br label %26

20:                                               ; preds = %.noexc
  %21 = landingpad { ptr, i32 }
          cleanup
  call void @_ZN6casadi6MatrixINS_6SXElemEED2Ev(ptr noundef nonnull align 8 dereferenceable(40) %3) #21
  br label %.body

22:                                               ; preds = %7, %6, %2
  %23 = landingpad { ptr, i32 }
          cleanup
  br label %28

24:                                               ; preds = %10, %8
  %25 = landingpad { ptr, i32 }
          cleanup
  br label %.body

.body:                                            ; preds = %20, %24
  %eh.lpad-body = phi { ptr, i32 } [ %25, %24 ], [ %21, %20 ]
  call void @_ZN6casadi6MatrixINS_6SXElemEED2Ev(ptr noundef nonnull align 8 dereferenceable(40) %0) #21
  br label %28

26:                                               ; preds = %19, %_ZSt8_DestroyIPN6casadi6SXElemES1_EvT_S3_RSaIT0_E.exit.i.i.i
  %27 = getelementptr inbounds i8, ptr %3, i64 8
  call void @_ZN6casadi12SharedObjectD2Ev(ptr noundef nonnull align 8 dereferenceable(8) %27) #21
  call void @llvm.lifetime.end.p0(i64 40, ptr nonnull %3)
  call void @_ZN6casadi8FunctionD1Ev(ptr noundef nonnull align 8 dereferenceable(8) %4) #21
  ret void

28:                                               ; preds = %.body, %22
  %.pn = phi { ptr, i32 } [ %eh.lpad-body, %.body ], [ %23, %22 ]
  call void @_ZN6casadi8FunctionD1Ev(ptr noundef nonnull align 8 dereferenceable(8) %4) #21
  resume { ptr, i32 } %.pn
}